; Function Attrs: mustprogress nofree norecurse nosync nounwind willreturn memory(argmem: readwrite) uwtable
define dso_local void @_ZN14btQuantizedBvhC2ERS_b(ptr noundef nonnull writeonly align 8 captures(none) dereferenceable(244) initializes((0, 60), (76, 84), (88, 97), (108, 116), (120, 129), (140, 148), (152, 161), (172, 180), (184, 193), (212, 220), (224, 233)) %0, ptr noundef nonnull readonly align 8 captures(none) dereferenceable(244) %1, i1 zeroext %2) unnamed_addr #13 align 2 personality ptr @__gxx_personality_v0 {
  store ptr getelementptr inbounds nuw inrange(-16, 56) (i8, ptr @_ZTV14btQuantizedBvh, i64 16), ptr %0, align 8, !tbaa !4
  %4 = getelementptr inbounds nuw i8, ptr %0, i64 8
  %5 = getelementptr inbounds nuw i8, ptr %1, i64 8
  tail call void @llvm.memcpy.p0.p0.i64(ptr noundef nonnull align 8 dereferenceable(16) %4, ptr noundef nonnull align 8 dereferenceable(16) %5, i64 16, i1 false), !tbaa.struct !60
  %6 = getelementptr inbounds nuw i8, ptr %0, i64 24
  %7 = getelementptr inbounds nuw i8, ptr %1, i64 24
  tail call void @llvm.memcpy.p0.p0.i64(ptr noundef nonnull align 8 dereferenceable(16) %6, ptr noundef nonnull align 8 dereferenceable(16) %7, i64 16, i1 false), !tbaa.struct !60
  %8 = getelementptr inbounds nuw i8, ptr %0, i64 40
  %9 = getelementptr inbounds nuw i8, ptr %1, i64 40
  tail call void @llvm.memcpy.p0.p0.i64(ptr noundef nonnull align 8 dereferenceable(16) %8, ptr noundef nonnull align 8 dereferenceable(16) %9, i64 16, i1 false), !tbaa.struct !60
  %10 = getelementptr inbounds nuw i8, ptr %0, i64 56
  store i32 326, ptr %10, align 8, !tbaa !7
  %11 = getelementptr inbounds nuw i8, ptr %0, i64 96
  store i8 1, ptr %11, align 8, !tbaa !25
  %12 = getelementptr inbounds nuw i8, ptr %0, i64 88
  store ptr null, ptr %12, align 8, !tbaa !26
  %13 = getelementptr inbounds nuw i8, ptr %0, i64 76
  store i32 0, ptr %13, align 4, !tbaa !27
  %14 = getelementptr inbounds nuw i8, ptr %0, i64 80
  store i32 0, ptr %14, align 8, !tbaa !28
  %15 = getelementptr inbounds nuw i8, ptr %0, i64 128
  store i8 1, ptr %15, align 8, !tbaa !25
  %16 = getelementptr inbounds nuw i8, ptr %0, i64 120
  store ptr null, ptr %16, align 8, !tbaa !26
  %17 = getelementptr inbounds nuw i8, ptr %0, i64 108
  store i32 0, ptr %17, align 4, !tbaa !27
  %18 = getelementptr inbounds nuw i8, ptr %0, i64 112
  store i32 0, ptr %18, align 8, !tbaa !28
  %19 = getelementptr inbounds nuw i8, ptr %0, i64 160
  store i8 1, ptr %19, align 8, !tbaa !29
  %20 = getelementptr inbounds nuw i8, ptr %0, i64 152
  store ptr null, ptr %20, align 8, !tbaa !30
  %21 = getelementptr inbounds nuw i8, ptr %0, i64 140
  store i32 0, ptr %21, align 4, !tbaa !31
  %22 = getelementptr inbounds nuw i8, ptr %0, i64 144
  store i32 0, ptr %22, align 8, !tbaa !32
  %23 = getelementptr inbounds nuw i8, ptr %0, i64 192
  store i8 1, ptr %23, align 8, !tbaa !29
  %24 = getelementptr inbounds nuw i8, ptr %0, i64 184
  store ptr null, ptr %24, align 8, !tbaa !30
  %25 = getelementptr inbounds nuw i8, ptr %0, i64 172
  store i32 0, ptr %25, align 4, !tbaa !31
  %26 = getelementptr inbounds nuw i8, ptr %0, i64 176
  store i32 0, ptr %26, align 8, !tbaa !32
  %27 = getelementptr inbounds nuw i8, ptr %0, i64 232
  store i8 1, ptr %27, align 8, !tbaa !34
  %28 = getelementptr inbounds nuw i8, ptr %0, i64 224
  store ptr null, ptr %28, align 8, !tbaa !35
  %29 = getelementptr inbounds nuw i8, ptr %0, i64 212
  store i32 0, ptr %29, align 4, !tbaa !36
  %30 = getelementptr inbounds nuw i8, ptr %0, i64 216
  store i32 0, ptr %30, align 8, !tbaa !37
  ret void
}